; Function Attrs: nounwind uwtable
define hidden ptr @mi_new(i64 noundef %0) #3 {
  %2 = tail call align 8 ptr @llvm.threadlocal.address.p0(ptr align 8 @_mi_heap_default)
  %3 = load ptr, ptr %2, align 8, !tbaa !3
  %4 = icmp ult i64 %0, 1025
  br i1 %4, label %5, label %mi_heap_malloc.exit.i, !prof !8

5:                                                ; preds = %1
  %6 = add nuw nsw i64 %0, 7
  %7 = lshr i64 %6, 3
  %8 = getelementptr inbounds nuw i8, ptr %3, i64 232
  %9 = getelementptr inbounds nuw [129 x ptr], ptr %8, i64 0, i64 %7
  %10 = load ptr, ptr %9, align 8, !tbaa !9
  %11 = getelementptr inbounds nuw i8, ptr %10, i64 16
  %12 = load ptr, ptr %11, align 8, !tbaa !11
  %13 = icmp eq ptr %12, null
  br i1 %13, label %mi_heap_malloc.exit.i, label %mi_heap_malloc.exit.thread.i, !prof !18

mi_heap_malloc.exit.thread.i:                     ; preds = %5
  %.val.i.i.i.i.i.i = load i64, ptr %12, align 8, !tbaa !19
  %14 = inttoptr i64 %.val.i.i.i.i.i.i to ptr
  store ptr %14, ptr %11, align 8, !tbaa !11
  %15 = getelementptr inbounds nuw i8, ptr %10, i64 32
  %16 = load i16, ptr %15, align 8, !tbaa !21
  %17 = add i16 %16, 1
  store i16 %17, ptr %15, align 8, !tbaa !21
  br label %mi_heap_alloc_new.exit

mi_heap_malloc.exit.i:                            ; preds = %5, %1
  %18 = tail call noalias ptr @_mi_malloc_generic(ptr noundef %3, i64 noundef %0, i1 noundef zeroext false, i64 noundef 0) #19
  %19 = icmp eq ptr %18, null
  br i1 %19, label %20, label %mi_heap_alloc_new.exit, !prof !26

20:                                               ; preds = %mi_heap_malloc.exit.i
  %21 = tail call ptr @mi_heap_try_new(ptr noundef %3, i64 noundef %0, i1 noundef zeroext false) #20
  br label %mi_heap_alloc_new.exit

mi_heap_alloc_new.exit:                           ; preds = %mi_heap_malloc.exit.thread.i, %mi_heap_malloc.exit.i, %20
  %.0.i = phi ptr [ %21, %20 ], [ %18, %mi_heap_malloc.exit.i ], [ %12, %mi_heap_malloc.exit.thread.i ]
  ret ptr %.0.i
}